target datalayout = "e-m:e-p270:32:32-p271:32:32-p272:64:64-i64:64-i128:128-f80:128-n8:16:32:64-S128"
target triple = "x86_64-pc-linux-gnu"

%struct.VLC = type { i32, ptr, i32, i32 }

@atrac3p_wl_ct_xlats = internal constant [52 x i8] c"\00\01\07\00\01\02\03\00\01\02\06\07\00\01\02\03\04\05\06\07\00\01\07\02\05\06\03\04\00\01\02\03\06\07\04\05\00\01\07\02\03\06\04\05\00\01\02\03\04\05\06\07", align 16
@wl_vlc_tabs = internal global [4 x %struct.VLC] zeroinitializer, align 16
@ct_vlc_tabs = internal global [4 x %struct.VLC] zeroinitializer, align 16
@sf_vlc_tabs = internal global [8 x %struct.VLC] zeroinitializer, align 16
@spec_vlc_tabs = internal global [112 x %struct.VLC] zeroinitializer, align 16
@gain_vlc_tabs = internal global [11 x %struct.VLC] zeroinitializer, align 16
@tone_vlc_tabs = internal global [7 x %struct.VLC] zeroinitializer, align 16

; Function Attrs: cold nounwind optsize uwtable
define void @ff_atrac3p_init_vlcs() #0 {
  %1 = alloca i32, align 4
  %2 = alloca i32, align 4
  %3 = alloca ptr, align 8
  %4 = alloca i32, align 4
  %5 = alloca i32, align 4
  call void @llvm.lifetime.start.p0(i64 4, ptr %1) #11
  call void @llvm.lifetime.start.p0(i64 4, ptr %2) #11
  store i32 0, ptr %2, align 4, !tbaa !4
  call void @llvm.lifetime.start.p0(i64 8, ptr %3) #11
  store ptr @atrac3p_wl_ct_xlats, ptr %3, align 8, !tbaa !8
  call void @llvm.lifetime.start.p0(i64 4, ptr %4) #11
  store i32 0, ptr %4, align 4, !tbaa !4
  br label %6

6:                                                ; preds = %25, %0
  %7 = load i32, ptr %4, align 4, !tbaa !4
  %8 = icmp slt i32 %7, 4
  br i1 %8, label %10, label %9

9:                                                ; preds = %6
  call void @llvm.lifetime.end.p0(i64 4, ptr %4) #11
  br label %28

10:                                               ; preds = %6
  %11 = load i32, ptr %4, align 4, !tbaa !4
  %12 = sext i32 %11 to i64
  %13 = getelementptr inbounds [4 x [12 x i8]], ptr @atrac3p_wl_cbs, i64 0, i64 %12
  %14 = getelementptr inbounds [12 x i8], ptr %13, i64 0, i64 0
  %15 = load i32, ptr %4, align 4, !tbaa !4
  %16 = sext i32 %15 to i64
  %17 = getelementptr inbounds [4 x %struct.VLC], ptr @wl_vlc_tabs, i64 0, i64 %16
  call void @build_canonical_huff(ptr noundef %14, ptr noundef %3, ptr noundef %2, ptr noundef %17) #12
  %18 = load i32, ptr %4, align 4, !tbaa !4
  %19 = sext i32 %18 to i64
  %20 = getelementptr inbounds [4 x [12 x i8]], ptr @atrac3p_ct_cbs, i64 0, i64 %19
  %21 = getelementptr inbounds [12 x i8], ptr %20, i64 0, i64 0
  %22 = load i32, ptr %4, align 4, !tbaa !4
  %23 = sext i32 %22 to i64
  %24 = getelementptr inbounds [4 x %struct.VLC], ptr @ct_vlc_tabs, i64 0, i64 %23
  call void @build_canonical_huff(ptr noundef %21, ptr noundef %3, ptr noundef %2, ptr noundef %24) #12
  br label %25

25:                                               ; preds = %10
  %26 = load i32, ptr %4, align 4, !tbaa !4
  %27 = add nsw i32 %26, 1
  store i32 %27, ptr %4, align 4, !tbaa !4
  br label %6, !llvm.loop !11

28:                                               ; preds = %9
  store ptr @atrac3p_sf_xlats, ptr %3, align 8, !tbaa !8
  call void @llvm.lifetime.start.p0(i64 4, ptr %5) #11
  store i32 0, ptr %5, align 4, !tbaa !4
  br label %29

29:                                               ; preds = %41, %28
  %30 = load i32, ptr %5, align 4, !tbaa !4
  %31 = icmp slt i32 %30, 8
  br i1 %31, label %33, label %32

32:                                               ; preds = %29
  call void @llvm.lifetime.end.p0(i64 4, ptr %5) #11
  br label %44

33:                                               ; preds = %29
  %34 = load i32, ptr %5, align 4, !tbaa !4
  %35 = sext i32 %34 to i64
  %36 = getelementptr inbounds [8 x [12 x i8]], ptr @atrac3p_sf_cbs, i64 0, i64 %35
  %37 = getelementptr inbounds [12 x i8], ptr %36, i64 0, i64 0
  %38 = load i32, ptr %5, align 4, !tbaa !4
  %39 = sext i32 %38 to i64
  %40 = getelementptr inbounds [8 x %struct.VLC], ptr @sf_vlc_tabs, i64 0, i64 %39
  call void @build_canonical_huff(ptr noundef %37, ptr noundef %3, ptr noundef %2, ptr noundef %40) #12
  br label %41

41:                                               ; preds = %33
  %42 = load i32, ptr %5, align 4, !tbaa !4
  %43 = add nsw i32 %42, 1
  store i32 %43, ptr %5, align 4, !tbaa !4
  br label %29, !llvm.loop !13

44:                                               ; preds = %32
  store ptr @atrac3p_spectra_xlats, ptr %3, align 8, !tbaa !8
  store i32 0, ptr %1, align 4, !tbaa !4
  br label %45

45:                                               ; preds = %78, %44
  %46 = load i32, ptr %1, align 4, !tbaa !4
  %47 = icmp slt i32 %46, 112
  br i1 %47, label %48, label %81

48:                                               ; preds = %45
  %49 = load i32, ptr %1, align 4, !tbaa !4
  %50 = sext i32 %49 to i64
  %51 = getelementptr inbounds [112 x [12 x i8]], ptr @atrac3p_spectra_cbs, i64 0, i64 %50
  %52 = getelementptr inbounds [12 x i8], ptr %51, i64 0, i64 0
  %53 = load i8, ptr %52, align 4, !tbaa !14
  %54 = sext i8 %53 to i32
  %55 = icmp sge i32 %54, 0
  br i1 %55, label %56, label %64

56:                                               ; preds = %48
  %57 = load i32, ptr %1, align 4, !tbaa !4
  %58 = sext i32 %57 to i64
  %59 = getelementptr inbounds [112 x [12 x i8]], ptr @atrac3p_spectra_cbs, i64 0, i64 %58
  %60 = getelementptr inbounds [12 x i8], ptr %59, i64 0, i64 0
  %61 = load i32, ptr %1, align 4, !tbaa !4
  %62 = sext i32 %61 to i64
  %63 = getelementptr inbounds [112 x %struct.VLC], ptr @spec_vlc_tabs, i64 0, i64 %62
  call void @build_canonical_huff(ptr noundef %60, ptr noundef %3, ptr noundef %2, ptr noundef %63) #12
  br label %77

64:                                               ; preds = %48
  %65 = load i32, ptr %1, align 4, !tbaa !4
  %66 = sext i32 %65 to i64
  %67 = getelementptr inbounds [112 x %struct.VLC], ptr @spec_vlc_tabs, i64 0, i64 %66
  %68 = load i32, ptr %1, align 4, !tbaa !4
  %69 = sext i32 %68 to i64
  %70 = getelementptr inbounds [112 x [12 x i8]], ptr @atrac3p_spectra_cbs, i64 0, i64 %69
  %71 = getelementptr inbounds [12 x i8], ptr %70, i64 0, i64 0
  %72 = load i8, ptr %71, align 4, !tbaa !14
  %73 = sext i8 %72 to i32
  %74 = sub nsw i32 0, %73
  %75 = sext i32 %74 to i64
  %76 = getelementptr inbounds [112 x %struct.VLC], ptr @spec_vlc_tabs, i64 0, i64 %75
  call void @llvm.memcpy.p0.p0.i64(ptr align 8 %67, ptr align 8 %76, i64 24, i1 false), !tbaa.struct !15
  br label %77

77:                                               ; preds = %64, %56
  br label %78

78:                                               ; preds = %77
  %79 = load i32, ptr %1, align 4, !tbaa !4
  %80 = add nsw i32 %79, 1
  store i32 %80, ptr %1, align 4, !tbaa !4
  br label %45, !llvm.loop !18

81:                                               ; preds = %45
  store ptr @atrac3p_gain_xlats, ptr %3, align 8, !tbaa !8
  store i32 0, ptr %1, align 4, !tbaa !4
  br label %82

82:                                               ; preds = %93, %81
  %83 = load i32, ptr %1, align 4, !tbaa !4
  %84 = icmp slt i32 %83, 11
  br i1 %84, label %85, label %96

85:                                               ; preds = %82
  %86 = load i32, ptr %1, align 4, !tbaa !4
  %87 = sext i32 %86 to i64
  %88 = getelementptr inbounds [11 x [12 x i8]], ptr @atrac3p_gain_cbs, i64 0, i64 %87
  %89 = getelementptr inbounds [12 x i8], ptr %88, i64 0, i64 0
  %90 = load i32, ptr %1, align 4, !tbaa !4
  %91 = sext i32 %90 to i64
  %92 = getelementptr inbounds [11 x %struct.VLC], ptr @gain_vlc_tabs, i64 0, i64 %91
  call void @build_canonical_huff(ptr noundef %89, ptr noundef %3, ptr noundef %2, ptr noundef %92) #12
  br label %93

93:                                               ; preds = %85
  %94 = load i32, ptr %1, align 4, !tbaa !4
  %95 = add nsw i32 %94, 1
  store i32 %95, ptr %1, align 4, !tbaa !4
  br label %82, !llvm.loop !19

96:                                               ; preds = %82
  store ptr @atrac3p_tone_xlats, ptr %3, align 8, !tbaa !8
  store i32 0, ptr %1, align 4, !tbaa !4
  br label %97

97:                                               ; preds = %108, %96
  %98 = load i32, ptr %1, align 4, !tbaa !4
  %99 = icmp slt i32 %98, 7
  br i1 %99, label %100, label %111

100:                                              ; preds = %97
  %101 = load i32, ptr %1, align 4, !tbaa !4
  %102 = sext i32 %101 to i64
  %103 = getelementptr inbounds [7 x [12 x i8]], ptr @atrac3p_tone_cbs, i64 0, i64 %102
  %104 = getelementptr inbounds [12 x i8], ptr %103, i64 0, i64 0
  %105 = load i32, ptr %1, align 4, !tbaa !4
  %106 = sext i32 %105 to i64
  %107 = getelementptr inbounds [7 x %struct.VLC], ptr @tone_vlc_tabs, i64 0, i64 %106
  call void @build_canonical_huff(ptr noundef %104, ptr noundef %3, ptr noundef %2, ptr noundef %107) #12
  br label %108

108:                                              ; preds = %100
  %109 = load i32, ptr %1, align 4, !tbaa !4
  %110 = add nsw i32 %109, 1
  store i32 %110, ptr %1, align 4, !tbaa !4
  br label %97, !llvm.loop !20

111:                                              ; preds = %97
  call void @llvm.lifetime.end.p0(i64 8, ptr %3) #11
  call void @llvm.lifetime.end.p0(i64 4, ptr %2) #11
  call void @llvm.lifetime.end.p0(i64 4, ptr %1) #11
  ret void
}