; Function Attrs: cold nounwind optsize uwtable
define void @ff_atrac3p_init_vlcs() local_unnamed_addr #0 {
  %1 = alloca i32, align 4
  %2 = alloca ptr, align 8
  call void @llvm.lifetime.start.p0(i64 4, ptr nonnull %1) #8
  store i32 0, ptr %1, align 4, !tbaa !4
  call void @llvm.lifetime.start.p0(i64 8, ptr nonnull %2) #8
  store ptr @atrac3p_wl_ct_xlats, ptr %2, align 8, !tbaa !8
  br label %4

3:                                                ; preds = %4
  store ptr @atrac3p_sf_xlats, ptr %2, align 8, !tbaa !8
  br label %10

4:                                                ; preds = %0, %4
  %indvars.iv = phi i64 [ 0, %0 ], [ %indvars.iv.next, %4 ]
  %5 = getelementptr inbounds nuw [4 x [12 x i8]], ptr @atrac3p_wl_cbs, i64 0, i64 %indvars.iv
  %6 = getelementptr inbounds nuw [4 x %struct.VLC], ptr @wl_vlc_tabs, i64 0, i64 %indvars.iv
  call fastcc void @build_canonical_huff(ptr noundef nonnull %5, ptr noundef %2, ptr noundef %1, ptr noundef nonnull %6) #9
  %7 = getelementptr inbounds nuw [4 x [12 x i8]], ptr @atrac3p_ct_cbs, i64 0, i64 %indvars.iv
  %8 = getelementptr inbounds nuw [4 x %struct.VLC], ptr @ct_vlc_tabs, i64 0, i64 %indvars.iv
  call fastcc void @build_canonical_huff(ptr noundef nonnull %7, ptr noundef %2, ptr noundef %1, ptr noundef nonnull %8) #9
  %indvars.iv.next = add nuw nsw i64 %indvars.iv, 1
  %exitcond.not = icmp eq i64 %indvars.iv.next, 4
  br i1 %exitcond.not, label %3, label %4, !llvm.loop !11

9:                                                ; preds = %10
  store ptr @atrac3p_spectra_xlats, ptr %2, align 8, !tbaa !8
  br label %13

10:                                               ; preds = %3, %10
  %indvars.iv34 = phi i64 [ 0, %3 ], [ %indvars.iv.next35, %10 ]
  %11 = getelementptr inbounds nuw [8 x [12 x i8]], ptr @atrac3p_sf_cbs, i64 0, i64 %indvars.iv34
  %12 = getelementptr inbounds nuw [8 x %struct.VLC], ptr @sf_vlc_tabs, i64 0, i64 %indvars.iv34
  call fastcc void @build_canonical_huff(ptr noundef nonnull %11, ptr noundef %2, ptr noundef %1, ptr noundef nonnull %12) #9
  %indvars.iv.next35 = add nuw nsw i64 %indvars.iv34, 1
  %exitcond37.not = icmp eq i64 %indvars.iv.next35, 8
  br i1 %exitcond37.not, label %9, label %10, !llvm.loop !13

13:                                               ; preds = %9, %24
  %indvars.iv38 = phi i64 [ 0, %9 ], [ %indvars.iv.next39, %24 ]
  %14 = getelementptr inbounds nuw [112 x [12 x i8]], ptr @atrac3p_spectra_cbs, i64 0, i64 %indvars.iv38
  %15 = load i8, ptr %14, align 4, !tbaa !14
  %16 = icmp sgt i8 %15, -1
  br i1 %16, label %17, label %19

17:                                               ; preds = %13
  %18 = getelementptr inbounds nuw [112 x %struct.VLC], ptr @spec_vlc_tabs, i64 0, i64 %indvars.iv38
  call fastcc void @build_canonical_huff(ptr noundef nonnull %14, ptr noundef %2, ptr noundef %1, ptr noundef nonnull %18) #9
  br label %24

19:                                               ; preds = %13
  %20 = sext i8 %15 to i64
  %21 = getelementptr inbounds nuw [112 x %struct.VLC], ptr @spec_vlc_tabs, i64 0, i64 %indvars.iv38
  %22 = sub nsw i64 0, %20
  %23 = getelementptr inbounds nuw [112 x %struct.VLC], ptr @spec_vlc_tabs, i64 0, i64 %22
  tail call void @llvm.memcpy.p0.p0.i64(ptr noundef nonnull align 8 dereferenceable(24) %21, ptr noundef nonnull align 8 dereferenceable(24) %23, i64 24, i1 false), !tbaa.struct !15
  br label %24

24:                                               ; preds = %17, %19
  %indvars.iv.next39 = add nuw nsw i64 %indvars.iv38, 1
  %exitcond41.not = icmp eq i64 %indvars.iv.next39, 112
  br i1 %exitcond41.not, label %25, label %13, !llvm.loop !18

25:                                               ; preds = %24
  store ptr @atrac3p_gain_xlats, ptr %2, align 8, !tbaa !8
  br label %26

26:                                               ; preds = %25, %26
  %indvars.iv42 = phi i64 [ 0, %25 ], [ %indvars.iv.next43, %26 ]
  %27 = getelementptr inbounds nuw [11 x [12 x i8]], ptr @atrac3p_gain_cbs, i64 0, i64 %indvars.iv42
  %28 = getelementptr inbounds nuw [11 x %struct.VLC], ptr @gain_vlc_tabs, i64 0, i64 %indvars.iv42
  call fastcc void @build_canonical_huff(ptr noundef nonnull %27, ptr noundef %2, ptr noundef %1, ptr noundef nonnull %28) #9
  %indvars.iv.next43 = add nuw nsw i64 %indvars.iv42, 1
  %exitcond45.not = icmp eq i64 %indvars.iv.next43, 11
  br i1 %exitcond45.not, label %29, label %26, !llvm.loop !19

29:                                               ; preds = %26
  store ptr @atrac3p_tone_xlats, ptr %2, align 8, !tbaa !8
  br label %30

30:                                               ; preds = %29, %30
  %indvars.iv46 = phi i64 [ 0, %29 ], [ %indvars.iv.next47, %30 ]
  %31 = getelementptr inbounds nuw [7 x [12 x i8]], ptr @atrac3p_tone_cbs, i64 0, i64 %indvars.iv46
  %32 = getelementptr inbounds nuw [7 x %struct.VLC], ptr @tone_vlc_tabs, i64 0, i64 %indvars.iv46
  call fastcc void @build_canonical_huff(ptr noundef nonnull %31, ptr noundef %2, ptr noundef %1, ptr noundef nonnull %32) #9
  %indvars.iv.next47 = add nuw nsw i64 %indvars.iv46, 1
  %exitcond49.not = icmp eq i64 %indvars.iv.next47, 7
  br i1 %exitcond49.not, label %33, label %30, !llvm.loop !20

33:                                               ; preds = %30
  call void @llvm.lifetime.end.p0(i64 8, ptr nonnull %2) #8
  call void @llvm.lifetime.end.p0(i64 4, ptr nonnull %1) #8
  ret void
}